target datalayout = "e-m:e-p270:32:32-p271:32:32-p272:64:64-i64:64-i128:128-f80:128-n8:16:32:64-S128"
target triple = "x86_64-pc-linux-gnu"

%struct.PREDICATELOCKTARGETTAG = type { i32, i32, i32, i32 }
%union.LWLockPadded = type { %struct.LWLock, [112 x i8] }
%struct.LWLock = type { i16, %struct.pg_atomic_uint32, %struct.proclist_head }
%struct.pg_atomic_uint32 = type { i32 }
%struct.proclist_head = type { i32, i32 }
%struct.dlist_head = type { %struct.dlist_node }
%struct.dlist_node = type { ptr, ptr }
%struct.SERIALIZABLEXACT = type { %struct.VirtualTransactionId, i64, i64, %union.anon, %struct.dlist_head, %struct.dlist_head, %struct.dlist_head, %struct.dlist_node, %struct.dlist_node, %struct.LWLock, %struct.dlist_head, i32, i32, i32, i32, i32, i32 }
%struct.VirtualTransactionId = type { i32, i32 }
%union.anon = type { i64 }
%struct.PREDICATELOCKTAG = type { ptr, ptr }
%struct.PREDICATELOCKTARGET = type { %struct.PREDICATELOCKTARGETTAG, %struct.dlist_head }
%struct.PREDICATELOCK = type { %struct.PREDICATELOCKTAG, %struct.dlist_node, %struct.dlist_node, i64 }
%struct.dlist_iter = type { ptr, ptr }
%struct.TwoPhasePredicateRecord = type { i32, %union.anon.0 }
%union.anon.0 = type { %struct.TwoPhasePredicateLockRecord }
%struct.TwoPhasePredicateLockRecord = type { %struct.PREDICATELOCKTARGETTAG, i32 }
%struct.TwoPhasePredicateXactRecord = type { i32, i32 }

@MainLWLockArray = external global ptr, align 8
@MySerializableXact = internal global ptr null, align 8

; Function Attrs: nounwind uwtable
define dso_local void @AtPrepare_PredicateLocks() #0 {
  %1 = alloca ptr, align 8
  %2 = alloca %struct.TwoPhasePredicateRecord, align 4
  %3 = alloca ptr, align 8
  %4 = alloca ptr, align 8
  %5 = alloca %struct.dlist_iter, align 8
  %6 = alloca i32, align 4
  %7 = alloca i32, align 4
  %8 = alloca i32, align 4
  %9 = alloca ptr, align 8
  %10 = alloca i32, align 4
  %11 = alloca i32, align 4
  call void @llvm.lifetime.start.p0(i64 8, ptr %1) #10
  call void @llvm.lifetime.start.p0(i64 24, ptr %2) #10
  call void @llvm.lifetime.start.p0(i64 8, ptr %3) #10
  call void @llvm.lifetime.start.p0(i64 8, ptr %4) #10
  call void @llvm.lifetime.start.p0(i64 16, ptr %5) #10
  %12 = load ptr, ptr @MySerializableXact, align 8
  store ptr %12, ptr %1, align 8
  %13 = getelementptr inbounds nuw %struct.TwoPhasePredicateRecord, ptr %2, i32 0, i32 1
  store ptr %13, ptr %3, align 8
  %14 = getelementptr inbounds nuw %struct.TwoPhasePredicateRecord, ptr %2, i32 0, i32 1
  store ptr %14, ptr %4, align 8
  %15 = load ptr, ptr @MySerializableXact, align 8
  %16 = icmp eq ptr %15, null
  br i1 %16, label %17, label %18

17:                                               ; preds = %0
  store i32 1, ptr %6, align 4
  br label %92

18:                                               ; preds = %0
  %19 = getelementptr inbounds nuw %struct.TwoPhasePredicateRecord, ptr %2, i32 0, i32 0
  store i32 0, ptr %19, align 4
  %20 = load ptr, ptr @MySerializableXact, align 8
  %21 = getelementptr inbounds nuw %struct.SERIALIZABLEXACT, ptr %20, i32 0, i32 13
  %22 = load i32, ptr %21, align 8
  %23 = load ptr, ptr %3, align 8
  %24 = getelementptr inbounds nuw %struct.TwoPhasePredicateXactRecord, ptr %23, i32 0, i32 0
  store i32 %22, ptr %24, align 4
  %25 = load ptr, ptr @MySerializableXact, align 8
  %26 = getelementptr inbounds nuw %struct.SERIALIZABLEXACT, ptr %25, i32 0, i32 14
  %27 = load i32, ptr %26, align 4
  %28 = load ptr, ptr %3, align 8
  %29 = getelementptr inbounds nuw %struct.TwoPhasePredicateXactRecord, ptr %28, i32 0, i32 1
  store i32 %27, ptr %29, align 4
  call void @RegisterTwoPhaseRecord(i8 noundef zeroext 4, i16 noundef zeroext 0, ptr noundef %2, i32 noundef 24)
  %30 = load ptr, ptr @MainLWLockArray, align 8
  %31 = getelementptr inbounds %union.LWLockPadded, ptr %30, i64 30
  %32 = call zeroext i1 @LWLockAcquire(ptr noundef %31, i32 noundef 1)
  br label %33

33:                                               ; preds = %18
  br label %34

34:                                               ; preds = %33
  br label %35

35:                                               ; preds = %34
  store i32 1, ptr %7, align 4
  br label %36

36:                                               ; preds = %35
  br label %37

37:                                               ; preds = %36
  br label %38

38:                                               ; preds = %37
  store i32 1, ptr %8, align 4
  %39 = load ptr, ptr %1, align 8
  %40 = getelementptr inbounds nuw %struct.SERIALIZABLEXACT, ptr %39, i32 0, i32 6
  %41 = getelementptr inbounds nuw %struct.dlist_head, ptr %40, i32 0, i32 0
  %42 = getelementptr inbounds nuw %struct.dlist_iter, ptr %5, i32 0, i32 1
  store ptr %41, ptr %42, align 8
  %43 = getelementptr inbounds nuw %struct.dlist_iter, ptr %5, i32 0, i32 1
  %44 = load ptr, ptr %43, align 8
  %45 = getelementptr inbounds nuw %struct.dlist_node, ptr %44, i32 0, i32 1
  %46 = load ptr, ptr %45, align 8
  %47 = icmp ne ptr %46, null
  br i1 %47, label %48, label %53

48:                                               ; preds = %38
  %49 = getelementptr inbounds nuw %struct.dlist_iter, ptr %5, i32 0, i32 1
  %50 = load ptr, ptr %49, align 8
  %51 = getelementptr inbounds nuw %struct.dlist_node, ptr %50, i32 0, i32 1
  %52 = load ptr, ptr %51, align 8
  br label %56

53:                                               ; preds = %38
  %54 = getelementptr inbounds nuw %struct.dlist_iter, ptr %5, i32 0, i32 1
  %55 = load ptr, ptr %54, align 8
  br label %56

56:                                               ; preds = %53, %48
  %57 = phi ptr [ %52, %48 ], [ %55, %53 ]
  %58 = getelementptr inbounds nuw %struct.dlist_iter, ptr %5, i32 0, i32 0
  store ptr %57, ptr %58, align 8
  br label %59

59:                                               ; preds = %83, %56
  %60 = getelementptr inbounds nuw %struct.dlist_iter, ptr %5, i32 0, i32 0
  %61 = load ptr, ptr %60, align 8
  %62 = getelementptr inbounds nuw %struct.dlist_iter, ptr %5, i32 0, i32 1
  %63 = load ptr, ptr %62, align 8
  %64 = icmp ne ptr %61, %63
  br i1 %64, label %65, label %89

65:                                               ; preds = %59
  call void @llvm.lifetime.start.p0(i64 8, ptr %9) #10
  br label %66

66:                                               ; preds = %65
  br label %67

67:                                               ; preds = %66
  br label %68

68:                                               ; preds = %67
  store i32 1, ptr %10, align 4
  br label %69

69:                                               ; preds = %68
  br label %70

70:                                               ; preds = %69
  br label %71

71:                                               ; preds = %70
  store i32 1, ptr %11, align 4
  %72 = getelementptr inbounds nuw %struct.dlist_iter, ptr %5, i32 0, i32 0
  %73 = load ptr, ptr %72, align 8
  %74 = getelementptr inbounds i8, ptr %73, i64 -32
  store ptr %74, ptr %9, align 8
  %75 = getelementptr inbounds nuw %struct.TwoPhasePredicateRecord, ptr %2, i32 0, i32 0
  store i32 1, ptr %75, align 4
  %76 = load ptr, ptr %4, align 8
  %77 = getelementptr inbounds nuw %struct.TwoPhasePredicateLockRecord, ptr %76, i32 0, i32 0
  %78 = load ptr, ptr %9, align 8
  %79 = getelementptr inbounds nuw %struct.PREDICATELOCK, ptr %78, i32 0, i32 0
  %80 = getelementptr inbounds nuw %struct.PREDICATELOCKTAG, ptr %79, i32 0, i32 0
  %81 = load ptr, ptr %80, align 8
  %82 = getelementptr inbounds nuw %struct.PREDICATELOCKTARGET, ptr %81, i32 0, i32 0
  call void @llvm.memcpy.p0.p0.i64(ptr align 4 %77, ptr align 8 %82, i64 16, i1 false)
  call void @RegisterTwoPhaseRecord(i8 noundef zeroext 4, i16 noundef zeroext 0, ptr noundef %2, i32 noundef 24)
  call void @llvm.lifetime.end.p0(i64 8, ptr %9) #10
  br label %83

83:                                               ; preds = %71
  %84 = getelementptr inbounds nuw %struct.dlist_iter, ptr %5, i32 0, i32 0
  %85 = load ptr, ptr %84, align 8
  %86 = getelementptr inbounds nuw %struct.dlist_node, ptr %85, i32 0, i32 1
  %87 = load ptr, ptr %86, align 8
  %88 = getelementptr inbounds nuw %struct.dlist_iter, ptr %5, i32 0, i32 0
  store ptr %87, ptr %88, align 8
  br label %59, !llvm.loop !41

89:                                               ; preds = %59
  %90 = load ptr, ptr @MainLWLockArray, align 8
  %91 = getelementptr inbounds %union.LWLockPadded, ptr %90, i64 30
  call void @LWLockRelease(ptr noundef %91)
  store i32 0, ptr %6, align 4
  br label %92

92:                                               ; preds = %89, %17
  call void @llvm.lifetime.end.p0(i64 16, ptr %5) #10
  call void @llvm.lifetime.end.p0(i64 8, ptr %4) #10
  call void @llvm.lifetime.end.p0(i64 8, ptr %3) #10
  call void @llvm.lifetime.end.p0(i64 24, ptr %2) #10
  call void @llvm.lifetime.end.p0(i64 8, ptr %1) #10
  %93 = load i32, ptr %6, align 4
  switch i32 %93, label %95 [
    i32 0, label %94
    i32 1, label %94
  ]

94:                                               ; preds = %92, %92
  ret void

95:                                               ; preds = %92
  unreachable
}