; Function Attrs: nounwind uwtable
define dso_local void @AtPrepare_PredicateLocks() local_unnamed_addr #0 {
  %1 = alloca %struct.TwoPhasePredicateRecord, align 4
  call void @llvm.lifetime.start.p0(i64 24, ptr nonnull %1) #12
  %2 = load ptr, ptr @MySerializableXact, align 8
  %3 = getelementptr inbounds nuw i8, ptr %1, i64 4
  %4 = icmp eq ptr %2, null
  br i1 %4, label %23, label %5

5:                                                ; preds = %0
  store i32 0, ptr %1, align 4
  %6 = getelementptr inbounds nuw i8, ptr %2, i64 152
  %7 = load i32, ptr %6, align 8
  store i32 %7, ptr %3, align 4
  %8 = getelementptr inbounds nuw i8, ptr %2, i64 156
  %9 = load i32, ptr %8, align 4
  %10 = getelementptr inbounds nuw i8, ptr %1, i64 8
  store i32 %9, ptr %10, align 4
  call void @RegisterTwoPhaseRecord(i8 noundef zeroext 4, i16 noundef zeroext 0, ptr noundef nonnull %1, i32 noundef 24) #12
  %11 = load ptr, ptr @MainLWLockArray, align 8
  %12 = getelementptr inbounds nuw i8, ptr %11, i64 3840
  %13 = call zeroext i1 @LWLockAcquire(ptr noundef nonnull %12, i32 noundef 1) #12
  %14 = getelementptr inbounds nuw i8, ptr %2, i64 64
  %15 = getelementptr inbounds nuw i8, ptr %2, i64 72
  %16 = load ptr, ptr %15, align 8
  %.not = icmp eq ptr %16, null
  %.not111214 = icmp eq ptr %16, %14
  %.not1112 = select i1 %.not, i1 true, i1 %.not111214
  br i1 %.not1112, label %._crit_edge, label %.lr.ph

.lr.ph:                                           ; preds = %5, %.lr.ph
  %.sroa.0.013 = phi ptr [ %20, %.lr.ph ], [ %16, %5 ]
  %17 = getelementptr inbounds i8, ptr %.sroa.0.013, i64 -32
  store i32 1, ptr %1, align 4
  %18 = load ptr, ptr %17, align 8
  call void @llvm.memcpy.p0.p0.i64(ptr noundef nonnull align 4 dereferenceable(16) %3, ptr noundef nonnull align 8 dereferenceable(16) %18, i64 16, i1 false)
  call void @RegisterTwoPhaseRecord(i8 noundef zeroext 4, i16 noundef zeroext 0, ptr noundef nonnull %1, i32 noundef 24) #12
  %19 = getelementptr inbounds nuw i8, ptr %.sroa.0.013, i64 8
  %20 = load ptr, ptr %19, align 8
  %.not11 = icmp eq ptr %20, %14
  br i1 %.not11, label %._crit_edge, label %.lr.ph, !llvm.loop !49

._crit_edge:                                      ; preds = %.lr.ph, %5
  %21 = load ptr, ptr @MainLWLockArray, align 8
  %22 = getelementptr inbounds nuw i8, ptr %21, i64 3840
  call void @LWLockRelease(ptr noundef nonnull %22) #12
  br label %23

23:                                               ; preds = %0, %._crit_edge
  call void @llvm.lifetime.end.p0(i64 24, ptr nonnull %1) #12
  ret void
}